target datalayout = "e-m:e-p270:32:32-p271:32:32-p272:64:64-i64:64-i128:128-f80:128-n8:16:32:64-S128"
target triple = "x86_64-pc-linux-gnu"

%struct.AVFilterContext = type { ptr, ptr, ptr, ptr, ptr, i32, ptr, ptr, i32, ptr, ptr, i32, i32, ptr, ptr, ptr, ptr, i32, ptr, i32, i32 }
%struct.AResampleContext = type { ptr, i32, double, ptr, i64, i32, i32 }
%struct.AVChannelLayout = type { i32, i32, %union.anon.1, ptr }
%union.anon.1 = type { i64 }
%struct.AVFilterFormatsConfig = type { ptr, ptr, ptr, ptr, ptr }

@.str.8 = private unnamed_addr constant [4 x i8] c"osr\00", align 1
@.str.9 = private unnamed_addr constant [5 x i8] c"ochl\00", align 1
@.str.10 = private unnamed_addr constant [4 x i8] c"osf\00", align 1

; Function Attrs: nounwind uwtable
define internal i32 @query_formats(ptr noundef %0, ptr noundef %1, ptr noundef %2) #1 {
  %4 = alloca i32, align 4
  %5 = alloca ptr, align 8
  %6 = alloca ptr, align 8
  %7 = alloca ptr, align 8
  %8 = alloca ptr, align 8
  %9 = alloca i32, align 4
  %10 = alloca %struct.AVChannelLayout, align 8
  %11 = alloca i64, align 8
  %12 = alloca ptr, align 8
  %13 = alloca ptr, align 8
  %14 = alloca ptr, align 8
  %15 = alloca ptr, align 8
  %16 = alloca ptr, align 8
  %17 = alloca ptr, align 8
  %18 = alloca i32, align 4
  %19 = alloca i32, align 4
  %20 = alloca [2 x i32], align 4
  %21 = alloca [2 x i32], align 4
  %22 = alloca [2 x %struct.AVChannelLayout], align 16
  store ptr %0, ptr %5, align 8, !tbaa !4
  store ptr %1, ptr %6, align 8, !tbaa !30
  store ptr %2, ptr %7, align 8, !tbaa !30
  call void @llvm.lifetime.start.p0(i64 8, ptr %8) #10
  %23 = load ptr, ptr %5, align 8, !tbaa !4
  %24 = getelementptr inbounds nuw %struct.AVFilterContext, ptr %23, i32 0, i32 9
  %25 = load ptr, ptr %24, align 8, !tbaa !9
  store ptr %25, ptr %8, align 8, !tbaa !22
  call void @llvm.lifetime.start.p0(i64 4, ptr %9) #10
  call void @llvm.lifetime.start.p0(i64 24, ptr %10) #10
  call void @llvm.memset.p0.i64(ptr align 8 %10, i8 0, i64 24, i1 false)
  call void @llvm.lifetime.start.p0(i64 8, ptr %11) #10
  call void @llvm.lifetime.start.p0(i64 8, ptr %12) #10
  call void @llvm.lifetime.start.p0(i64 8, ptr %13) #10
  call void @llvm.lifetime.start.p0(i64 8, ptr %14) #10
  call void @llvm.lifetime.start.p0(i64 8, ptr %15) #10
  call void @llvm.lifetime.start.p0(i64 8, ptr %16) #10
  call void @llvm.lifetime.start.p0(i64 8, ptr %17) #10
  call void @llvm.lifetime.start.p0(i64 4, ptr %18) #10
  %26 = load ptr, ptr %8, align 8, !tbaa !22
  %27 = getelementptr inbounds nuw %struct.AResampleContext, ptr %26, i32 0, i32 1
  %28 = load i32, ptr %27, align 8, !tbaa !32
  %29 = icmp sgt i32 %28, 0
  br i1 %29, label %30, label %39

30:                                               ; preds = %3
  %31 = load ptr, ptr %8, align 8, !tbaa !22
  %32 = getelementptr inbounds nuw %struct.AResampleContext, ptr %31, i32 0, i32 3
  %33 = load ptr, ptr %32, align 8, !tbaa !29
  %34 = load ptr, ptr %8, align 8, !tbaa !22
  %35 = getelementptr inbounds nuw %struct.AResampleContext, ptr %34, i32 0, i32 1
  %36 = load i32, ptr %35, align 8, !tbaa !32
  %37 = sext i32 %36 to i64
  %38 = call i32 @av_opt_set_int(ptr noundef %33, ptr noundef @.str.8, i64 noundef %37, i32 noundef 0)
  br label %39

39:                                               ; preds = %30, %3
  %40 = load ptr, ptr %8, align 8, !tbaa !22
  %41 = getelementptr inbounds nuw %struct.AResampleContext, ptr %40, i32 0, i32 3
  %42 = load ptr, ptr %41, align 8, !tbaa !29
  %43 = call i32 @av_opt_get_sample_fmt(ptr noundef %42, ptr noundef @.str.10, i32 noundef 0, ptr noundef %9)
  %44 = load ptr, ptr %8, align 8, !tbaa !22
  %45 = getelementptr inbounds nuw %struct.AResampleContext, ptr %44, i32 0, i32 3
  %46 = load ptr, ptr %45, align 8, !tbaa !29
  %47 = call i32 @av_opt_get_int(ptr noundef %46, ptr noundef @.str.8, i32 noundef 0, ptr noundef %11)
  %48 = call ptr @ff_all_formats(i32 noundef 1)
  store ptr %48, ptr %12, align 8, !tbaa !33
  %49 = load ptr, ptr %12, align 8, !tbaa !33
  %50 = load ptr, ptr %6, align 8, !tbaa !30
  %51 = getelementptr inbounds ptr, ptr %50, i64 0
  %52 = load ptr, ptr %51, align 8, !tbaa !35
  %53 = getelementptr inbounds nuw %struct.AVFilterFormatsConfig, ptr %52, i32 0, i32 0
  %54 = call i32 @ff_formats_ref(ptr noundef %49, ptr noundef %53)
  store i32 %54, ptr %18, align 4, !tbaa !37
  %55 = icmp slt i32 %54, 0
  br i1 %55, label %56, label %58

56:                                               ; preds = %39
  %57 = load i32, ptr %18, align 4, !tbaa !37
  store i32 %57, ptr %4, align 4
  store i32 1, ptr %19, align 4
  br label %141

58:                                               ; preds = %39
  %59 = call ptr @ff_all_samplerates()
  store ptr %59, ptr %14, align 8, !tbaa !33
  %60 = load ptr, ptr %14, align 8, !tbaa !33
  %61 = load ptr, ptr %6, align 8, !tbaa !30
  %62 = getelementptr inbounds ptr, ptr %61, i64 0
  %63 = load ptr, ptr %62, align 8, !tbaa !35
  %64 = getelementptr inbounds nuw %struct.AVFilterFormatsConfig, ptr %63, i32 0, i32 1
  %65 = call i32 @ff_formats_ref(ptr noundef %60, ptr noundef %64)
  store i32 %65, ptr %18, align 4, !tbaa !37
  %66 = icmp slt i32 %65, 0
  br i1 %66, label %67, label %69

67:                                               ; preds = %58
  %68 = load i32, ptr %18, align 4, !tbaa !37
  store i32 %68, ptr %4, align 4
  store i32 1, ptr %19, align 4
  br label %141

69:                                               ; preds = %58
  %70 = call ptr @ff_all_channel_counts()
  store ptr %70, ptr %16, align 8, !tbaa !38
  %71 = load ptr, ptr %16, align 8, !tbaa !38
  %72 = load ptr, ptr %6, align 8, !tbaa !30
  %73 = getelementptr inbounds ptr, ptr %72, i64 0
  %74 = load ptr, ptr %73, align 8, !tbaa !35
  %75 = getelementptr inbounds nuw %struct.AVFilterFormatsConfig, ptr %74, i32 0, i32 2
  %76 = call i32 @ff_channel_layouts_ref(ptr noundef %71, ptr noundef %75)
  store i32 %76, ptr %18, align 4, !tbaa !37
  %77 = icmp slt i32 %76, 0
  br i1 %77, label %78, label %80

78:                                               ; preds = %69
  %79 = load i32, ptr %18, align 4, !tbaa !37
  store i32 %79, ptr %4, align 4
  store i32 1, ptr %19, align 4
  br label %141

80:                                               ; preds = %69
  %81 = load i64, ptr %11, align 8, !tbaa !40
  %82 = icmp sgt i64 %81, 0
  br i1 %82, label %83, label %89

83:                                               ; preds = %80
  call void @llvm.lifetime.start.p0(i64 8, ptr %20) #10
  %84 = load i64, ptr %11, align 8, !tbaa !40
  %85 = trunc i64 %84 to i32
  store i32 %85, ptr %20, align 4, !tbaa !37
  %86 = getelementptr inbounds i32, ptr %20, i64 1
  store i32 -1, ptr %86, align 4, !tbaa !37
  %87 = getelementptr inbounds [2 x i32], ptr %20, i64 0, i64 0
  %88 = call ptr @ff_make_format_list(ptr noundef %87)
  store ptr %88, ptr %15, align 8, !tbaa !33
  call void @llvm.lifetime.end.p0(i64 8, ptr %20) #10
  br label %91

89:                                               ; preds = %80
  %90 = call ptr @ff_all_samplerates()
  store ptr %90, ptr %15, align 8, !tbaa !33
  br label %91

91:                                               ; preds = %89, %83
  %92 = load ptr, ptr %15, align 8, !tbaa !33
  %93 = load ptr, ptr %7, align 8, !tbaa !30
  %94 = getelementptr inbounds ptr, ptr %93, i64 0
  %95 = load ptr, ptr %94, align 8, !tbaa !35
  %96 = getelementptr inbounds nuw %struct.AVFilterFormatsConfig, ptr %95, i32 0, i32 1
  %97 = call i32 @ff_formats_ref(ptr noundef %92, ptr noundef %96)
  store i32 %97, ptr %18, align 4, !tbaa !37
  %98 = icmp slt i32 %97, 0
  br i1 %98, label %99, label %101

99:                                               ; preds = %91
  %100 = load i32, ptr %18, align 4, !tbaa !37
  store i32 %100, ptr %4, align 4
  store i32 1, ptr %19, align 4
  br label %141

101:                                              ; preds = %91
  %102 = load i32, ptr %9, align 4, !tbaa !37
  %103 = icmp ne i32 %102, -1
  br i1 %103, label %104, label %109

104:                                              ; preds = %101
  call void @llvm.lifetime.start.p0(i64 8, ptr %21) #10
  %105 = load i32, ptr %9, align 4, !tbaa !37
  store i32 %105, ptr %21, align 4, !tbaa !37
  %106 = getelementptr inbounds i32, ptr %21, i64 1
  store i32 -1, ptr %106, align 4, !tbaa !37
  %107 = getelementptr inbounds [2 x i32], ptr %21, i64 0, i64 0
  %108 = call ptr @ff_make_format_list(ptr noundef %107)
  store ptr %108, ptr %13, align 8, !tbaa !33
  call void @llvm.lifetime.end.p0(i64 8, ptr %21) #10
  br label %111

109:                                              ; preds = %101
  %110 = call ptr @ff_all_formats(i32 noundef 1)
  store ptr %110, ptr %13, align 8, !tbaa !33
  br label %111

111:                                              ; preds = %109, %104
  %112 = load ptr, ptr %13, align 8, !tbaa !33
  %113 = load ptr, ptr %7, align 8, !tbaa !30
  %114 = getelementptr inbounds ptr, ptr %113, i64 0
  %115 = load ptr, ptr %114, align 8, !tbaa !35
  %116 = getelementptr inbounds nuw %struct.AVFilterFormatsConfig, ptr %115, i32 0, i32 0
  %117 = call i32 @ff_formats_ref(ptr noundef %112, ptr noundef %116)
  store i32 %117, ptr %18, align 4, !tbaa !37
  %118 = icmp slt i32 %117, 0
  br i1 %118, label %119, label %121

119:                                              ; preds = %111
  %120 = load i32, ptr %18, align 4, !tbaa !37
  store i32 %120, ptr %4, align 4
  store i32 1, ptr %19, align 4
  br label %141

121:                                              ; preds = %111
  %122 = load ptr, ptr %8, align 8, !tbaa !22
  %123 = getelementptr inbounds nuw %struct.AResampleContext, ptr %122, i32 0, i32 3
  %124 = load ptr, ptr %123, align 8, !tbaa !29
  %125 = call i32 @av_opt_get_chlayout(ptr noundef %124, ptr noundef @.str.9, i32 noundef 0, ptr noundef %10)
  %126 = call i32 @av_channel_layout_check(ptr noundef %10)
  %127 = icmp ne i32 %126, 0
  br i1 %127, label %128, label %132

128:                                              ; preds = %121
  call void @llvm.lifetime.start.p0(i64 48, ptr %22) #10
  call void @llvm.memcpy.p0.p0.i64(ptr align 8 %22, ptr align 8 %10, i64 24, i1 false), !tbaa.struct !41
  %129 = getelementptr inbounds %struct.AVChannelLayout, ptr %22, i64 1
  call void @llvm.memset.p0.i64(ptr align 8 %129, i8 0, i64 24, i1 false)
  %130 = getelementptr inbounds [2 x %struct.AVChannelLayout], ptr %22, i64 0, i64 0
  %131 = call ptr @ff_make_channel_layout_list(ptr noundef %130)
  store ptr %131, ptr %17, align 8, !tbaa !38
  call void @llvm.lifetime.end.p0(i64 48, ptr %22) #10
  br label %134

132:                                              ; preds = %121
  %133 = call ptr @ff_all_channel_counts()
  store ptr %133, ptr %17, align 8, !tbaa !38
  br label %134

134:                                              ; preds = %132, %128
  call void @av_channel_layout_uninit(ptr noundef %10)
  %135 = load ptr, ptr %17, align 8, !tbaa !38
  %136 = load ptr, ptr %7, align 8, !tbaa !30
  %137 = getelementptr inbounds ptr, ptr %136, i64 0
  %138 = load ptr, ptr %137, align 8, !tbaa !35
  %139 = getelementptr inbounds nuw %struct.AVFilterFormatsConfig, ptr %138, i32 0, i32 2
  %140 = call i32 @ff_channel_layouts_ref(ptr noundef %135, ptr noundef %139)
  store i32 %140, ptr %4, align 4
  store i32 1, ptr %19, align 4
  br label %141

141:                                              ; preds = %134, %119, %99, %78, %67, %56
  call void @llvm.lifetime.end.p0(i64 4, ptr %18) #10
  call void @llvm.lifetime.end.p0(i64 8, ptr %17) #10
  call void @llvm.lifetime.end.p0(i64 8, ptr %16) #10
  call void @llvm.lifetime.end.p0(i64 8, ptr %15) #10
  call void @llvm.lifetime.end.p0(i64 8, ptr %14) #10
  call void @llvm.lifetime.end.p0(i64 8, ptr %13) #10
  call void @llvm.lifetime.end.p0(i64 8, ptr %12) #10
  call void @llvm.lifetime.end.p0(i64 8, ptr %11) #10
  call void @llvm.lifetime.end.p0(i64 24, ptr %10) #10
  call void @llvm.lifetime.end.p0(i64 4, ptr %9) #10
  call void @llvm.lifetime.end.p0(i64 8, ptr %8) #10
  %142 = load i32, ptr %4, align 4
  ret i32 %142
}