; Function Attrs: nounwind uwtable
define internal i32 @query_formats(ptr noundef readonly captures(none) %0, ptr noundef readonly captures(none) %1, ptr noundef readonly captures(none) %2) #1 {
  %4 = alloca i32, align 4
  %5 = alloca %struct.AVChannelLayout, align 8
  %6 = alloca i64, align 8
  %7 = alloca [2 x i32], align 4
  %8 = alloca [2 x i32], align 4
  %9 = alloca [2 x %struct.AVChannelLayout], align 16
  %10 = getelementptr inbounds nuw i8, ptr %0, i64 72
  %11 = load ptr, ptr %10, align 8, !tbaa !4
  call void @llvm.lifetime.start.p0(i64 4, ptr nonnull %4) #11
  call void @llvm.lifetime.start.p0(i64 24, ptr nonnull %5) #11
  call void @llvm.memset.p0.i64(ptr noundef nonnull align 8 dereferenceable(24) %5, i8 0, i64 24, i1 false)
  call void @llvm.lifetime.start.p0(i64 8, ptr nonnull %6) #11
  %12 = getelementptr inbounds nuw i8, ptr %11, i64 8
  %13 = load i32, ptr %12, align 8, !tbaa !26
  %14 = icmp sgt i32 %13, 0
  br i1 %14, label %15, label %20

15:                                               ; preds = %3
  %16 = getelementptr inbounds nuw i8, ptr %11, i64 24
  %17 = load ptr, ptr %16, align 8, !tbaa !25
  %18 = zext nneg i32 %13 to i64
  %19 = tail call i32 @av_opt_set_int(ptr noundef %17, ptr noundef nonnull @.str.8, i64 noundef %18, i32 noundef 0) #11
  br label %20

20:                                               ; preds = %15, %3
  %21 = getelementptr inbounds nuw i8, ptr %11, i64 24
  %22 = load ptr, ptr %21, align 8, !tbaa !25
  %23 = call i32 @av_opt_get_sample_fmt(ptr noundef %22, ptr noundef nonnull @.str.10, i32 noundef 0, ptr noundef nonnull %4) #11
  %24 = load ptr, ptr %21, align 8, !tbaa !25
  %25 = call i32 @av_opt_get_int(ptr noundef %24, ptr noundef nonnull @.str.8, i32 noundef 0, ptr noundef nonnull %6) #11
  %26 = call ptr @ff_all_formats(i32 noundef 1) #11
  %27 = load ptr, ptr %1, align 8, !tbaa !27
  %28 = call i32 @ff_formats_ref(ptr noundef %26, ptr noundef %27) #11
  %29 = icmp slt i32 %28, 0
  br i1 %29, label %80, label %30

30:                                               ; preds = %20
  %31 = call ptr @ff_all_samplerates() #11
  %32 = load ptr, ptr %1, align 8, !tbaa !27
  %33 = getelementptr inbounds nuw i8, ptr %32, i64 8
  %34 = call i32 @ff_formats_ref(ptr noundef %31, ptr noundef nonnull %33) #11
  %35 = icmp slt i32 %34, 0
  br i1 %35, label %80, label %36

36:                                               ; preds = %30
  %37 = call ptr @ff_all_channel_counts() #11
  %38 = load ptr, ptr %1, align 8, !tbaa !27
  %39 = getelementptr inbounds nuw i8, ptr %38, i64 16
  %40 = call i32 @ff_channel_layouts_ref(ptr noundef %37, ptr noundef nonnull %39) #11
  %41 = icmp slt i32 %40, 0
  br i1 %41, label %80, label %42

42:                                               ; preds = %36
  %43 = load i64, ptr %6, align 8, !tbaa !29
  %44 = icmp sgt i64 %43, 0
  br i1 %44, label %45, label %49

45:                                               ; preds = %42
  call void @llvm.lifetime.start.p0(i64 8, ptr nonnull %7) #11
  %46 = trunc i64 %43 to i32
  store i32 %46, ptr %7, align 4, !tbaa !30
  %47 = getelementptr inbounds nuw i8, ptr %7, i64 4
  store i32 -1, ptr %47, align 4, !tbaa !30
  %48 = call ptr @ff_make_format_list(ptr noundef nonnull %7) #11
  call void @llvm.lifetime.end.p0(i64 8, ptr nonnull %7) #11
  br label %51

49:                                               ; preds = %42
  %50 = call ptr @ff_all_samplerates() #11
  br label %51

51:                                               ; preds = %49, %45
  %.025 = phi ptr [ %48, %45 ], [ %50, %49 ]
  %52 = load ptr, ptr %2, align 8, !tbaa !27
  %53 = getelementptr inbounds nuw i8, ptr %52, i64 8
  %54 = call i32 @ff_formats_ref(ptr noundef %.025, ptr noundef nonnull %53) #11
  %55 = icmp slt i32 %54, 0
  br i1 %55, label %80, label %56

56:                                               ; preds = %51
  %57 = load i32, ptr %4, align 4, !tbaa !30
  %.not = icmp eq i32 %57, -1
  br i1 %.not, label %61, label %58

58:                                               ; preds = %56
  call void @llvm.lifetime.start.p0(i64 8, ptr nonnull %8) #11
  store i32 %57, ptr %8, align 4, !tbaa !30
  %59 = getelementptr inbounds nuw i8, ptr %8, i64 4
  store i32 -1, ptr %59, align 4, !tbaa !30
  %60 = call ptr @ff_make_format_list(ptr noundef nonnull %8) #11
  call void @llvm.lifetime.end.p0(i64 8, ptr nonnull %8) #11
  br label %63

61:                                               ; preds = %56
  %62 = call ptr @ff_all_formats(i32 noundef 1) #11
  br label %63

63:                                               ; preds = %61, %58
  %.026 = phi ptr [ %60, %58 ], [ %62, %61 ]
  %64 = load ptr, ptr %2, align 8, !tbaa !27
  %65 = call i32 @ff_formats_ref(ptr noundef %.026, ptr noundef %64) #11
  %66 = icmp slt i32 %65, 0
  br i1 %66, label %80, label %67

67:                                               ; preds = %63
  %68 = load ptr, ptr %21, align 8, !tbaa !25
  %69 = call i32 @av_opt_get_chlayout(ptr noundef %68, ptr noundef nonnull @.str.9, i32 noundef 0, ptr noundef nonnull %5) #11
  %70 = call i32 @av_channel_layout_check(ptr noundef nonnull %5) #11
  %.not33 = icmp eq i32 %70, 0
  br i1 %.not33, label %74, label %71

71:                                               ; preds = %67
  call void @llvm.lifetime.start.p0(i64 48, ptr nonnull %9) #11
  call void @llvm.memcpy.p0.p0.i64(ptr noundef nonnull align 16 dereferenceable(24) %9, ptr noundef nonnull align 8 dereferenceable(24) %5, i64 24, i1 false), !tbaa.struct !31
  %72 = getelementptr inbounds nuw i8, ptr %9, i64 24
  call void @llvm.memset.p0.i64(ptr noundef nonnull align 8 dereferenceable(24) %72, i8 0, i64 24, i1 false)
  %73 = call ptr @ff_make_channel_layout_list(ptr noundef nonnull %9) #11
  call void @llvm.lifetime.end.p0(i64 48, ptr nonnull %9) #11
  br label %76

74:                                               ; preds = %67
  %75 = call ptr @ff_all_channel_counts() #11
  br label %76

76:                                               ; preds = %74, %71
  %.0 = phi ptr [ %73, %71 ], [ %75, %74 ]
  call void @av_channel_layout_uninit(ptr noundef nonnull %5) #11
  %77 = load ptr, ptr %2, align 8, !tbaa !27
  %78 = getelementptr inbounds nuw i8, ptr %77, i64 16
  %79 = call i32 @ff_channel_layouts_ref(ptr noundef %.0, ptr noundef nonnull %78) #11
  br label %80

80:                                               ; preds = %63, %51, %36, %30, %20, %76
  %.024 = phi i32 [ %79, %76 ], [ %28, %20 ], [ %34, %30 ], [ %40, %36 ], [ %54, %51 ], [ %65, %63 ]
  call void @llvm.lifetime.end.p0(i64 8, ptr nonnull %6) #11
  call void @llvm.lifetime.end.p0(i64 24, ptr nonnull %5) #11
  call void @llvm.lifetime.end.p0(i64 4, ptr nonnull %4) #11
  ret i32 %.024
}